; Function Attrs: nounwind uwtable
define dso_local void @srun_allocate_abort(ptr noundef readonly captures(address_is_null) %0) local_unnamed_addr #0 {
  %.not = icmp eq ptr %0, null
  br i1 %.not, label %38, label %2

2:                                                ; preds = %1
  %3 = getelementptr inbounds nuw i8, ptr %0, i64 40
  %4 = load i16, ptr %3, align 8
  %.not16 = icmp eq i16 %4, 0
  br i1 %.not16, label %38, label %5

5:                                                ; preds = %2
  %6 = getelementptr inbounds nuw i8, ptr %0, i64 32
  %7 = load ptr, ptr %6, align 8
  %.not17 = icmp eq ptr %7, null
  br i1 %.not17, label %38, label %8

8:                                                ; preds = %5
  %9 = getelementptr inbounds nuw i8, ptr %0, i64 856
  %10 = load ptr, ptr %9, align 8
  %.not18 = icmp eq ptr %10, null
  br i1 %.not18, label %38, label %11

11:                                               ; preds = %8
  %12 = tail call ptr @slurm_xcalloc(i64 noundef 1, i64 noundef 128, i1 noundef zeroext true, i1 noundef zeroext false, ptr noundef nonnull @.str, i32 noundef 92, ptr noundef nonnull @__func__.srun_allocate_abort) #6
  %13 = load i16, ptr %3, align 8
  %14 = load ptr, ptr %9, align 8
  tail call void @slurm_set_addr(ptr noundef %12, i16 noundef zeroext %13, ptr noundef %14) #6
  %15 = tail call ptr @slurm_xcalloc(i64 noundef 1, i64 noundef 32, i1 noundef zeroext true, i1 noundef zeroext false, ptr noundef nonnull @.str, i32 noundef 95, ptr noundef nonnull @__func__.srun_allocate_abort) #6
  %16 = getelementptr inbounds nuw i8, ptr %0, i64 392
  %17 = load i32, ptr %16, align 8
  %18 = getelementptr inbounds nuw i8, ptr %15, i64 8
  store i32 %17, ptr %18, align 8
  %19 = getelementptr inbounds nuw i8, ptr %15, i64 16
  store i32 -2, ptr %19, align 8
  %20 = getelementptr inbounds nuw i8, ptr %15, i64 12
  store i32 -2, ptr %20, align 4
  %21 = load ptr, ptr %6, align 8
  %22 = getelementptr inbounds nuw i8, ptr %0, i64 1096
  %23 = load i32, ptr %22, align 8
  %24 = getelementptr inbounds nuw i8, ptr %0, i64 908
  %25 = load i16, ptr %24, align 4
  %26 = tail call ptr @slurm_xcalloc(i64 noundef 1, i64 noundef 56, i1 noundef zeroext true, i1 noundef zeroext false, ptr noundef nonnull @.str, i32 noundef 61, ptr noundef nonnull @__func__._srun_agent_launch) #6
  store i32 1, ptr %26, align 8
  %27 = getelementptr inbounds nuw i8, ptr %26, i64 4
  store i16 0, ptr %27, align 4
  %28 = getelementptr inbounds nuw i8, ptr %26, i64 16
  store ptr %12, ptr %28, align 8
  %29 = tail call ptr @hostlist_create(ptr noundef %21) #6
  %30 = getelementptr inbounds nuw i8, ptr %26, i64 24
  store ptr %29, ptr %30, align 8
  %31 = getelementptr inbounds nuw i8, ptr %26, i64 36
  store i32 7004, ptr %31, align 4
  %32 = getelementptr inbounds nuw i8, ptr %26, i64 40
  store ptr %15, ptr %32, align 8
  tail call void @set_agent_arg_r_uid(ptr noundef nonnull %26, i32 noundef %23) #6
  %33 = tail call i16 @llvm.umin.i16(i16 %25, i16 11008)
  %34 = getelementptr inbounds nuw i8, ptr %26, i64 32
  store i16 %33, ptr %34, align 8
  %35 = load ptr, ptr @stepmgr_ops, align 8
  %36 = getelementptr inbounds nuw i8, ptr %35, i64 64
  %37 = load ptr, ptr %36, align 8
  tail call void %37(ptr noundef nonnull %26) #6
  br label %38

38:                                               ; preds = %11, %8, %5, %2, %1
  ret void
}